target datalayout = "e-m:e-p270:32:32-p271:32:32-p272:64:64-i64:64-i128:128-f80:128-n8:16:32:64-S128"
target triple = "x86_64-pc-linux-gnu"

%struct.ParseState = type { ptr, ptr, i32, i32, ptr, ptr, ptr, ptr, ptr, ptr, i8, ptr, ptr, ptr, ptr, ptr, ptr, i8, ptr, i32, i32, ptr, ptr, i8, i8, ptr, i8, i8, i8, i8, i8, ptr, ptr, ptr, ptr, ptr, ptr }
%struct.Node = type { i32 }
%struct.Expr = type { i32 }
%struct.OpExpr = type { %struct.Expr, i32, i32, i32, i8, i32, i32, ptr, i32 }

@.str.41 = private unnamed_addr constant [13 x i8] c"parse_expr.c\00", align 1
@.str.71 = private unnamed_addr constant [40 x i8] c"%s requires = operator to yield boolean\00", align 1
@.str.72 = private unnamed_addr constant [17 x i8] c"IS DISTINCT FROM\00", align 1
@__func__.make_distinct_op = private unnamed_addr constant [17 x i8] c"make_distinct_op\00", align 1
@.str.73 = private unnamed_addr constant [25 x i8] c"%s must not return a set\00", align 1

; Function Attrs: nounwind uwtable
define internal ptr @make_distinct_op(ptr noundef %0, ptr noundef %1, ptr noundef %2, ptr noundef %3, i32 noundef %4) #0 {
  %6 = alloca ptr, align 8
  %7 = alloca ptr, align 8
  %8 = alloca ptr, align 8
  %9 = alloca ptr, align 8
  %10 = alloca i32, align 4
  %11 = alloca ptr, align 8
  store ptr %0, ptr %6, align 8
  store ptr %1, ptr %7, align 8
  store ptr %2, ptr %8, align 8
  store ptr %3, ptr %9, align 8
  store i32 %4, ptr %10, align 4
  call void @llvm.lifetime.start.p0(i64 8, ptr %11) #8
  %12 = load ptr, ptr %6, align 8
  %13 = load ptr, ptr %7, align 8
  %14 = load ptr, ptr %8, align 8
  %15 = load ptr, ptr %9, align 8
  %16 = load ptr, ptr %6, align 8
  %17 = getelementptr inbounds nuw %struct.ParseState, ptr %16, i32 0, i32 31
  %18 = load ptr, ptr %17, align 8
  %19 = load i32, ptr %10, align 4
  %20 = call ptr @make_op(ptr noundef %12, ptr noundef %13, ptr noundef %14, ptr noundef %15, ptr noundef %18, i32 noundef %19)
  store ptr %20, ptr %11, align 8
  %21 = load ptr, ptr %11, align 8
  %22 = getelementptr inbounds nuw %struct.OpExpr, ptr %21, i32 0, i32 3
  %23 = load i32, ptr %22, align 4
  %24 = icmp ne i32 %23, 16
  br i1 %24, label %25, label %40

25:                                               ; preds = %5
  br label %26

26:                                               ; preds = %25
  br i1 true, label %27, label %29

27:                                               ; preds = %26
  %28 = call zeroext i1 @errstart_cold(i32 noundef 21, ptr noundef null) #9
  br i1 %28, label %31, label %37

29:                                               ; preds = %26
  %30 = call zeroext i1 @errstart(i32 noundef 21, ptr noundef null)
  br i1 %30, label %31, label %37

31:                                               ; preds = %29, %27
  %32 = call i32 @errcode(i32 noundef 67141764)
  %33 = call i32 (ptr, ...) @errmsg(ptr noundef @.str.71, ptr noundef @.str.72)
  %34 = load ptr, ptr %6, align 8
  %35 = load i32, ptr %10, align 4
  %36 = call i32 @parser_errposition(ptr noundef %34, i32 noundef %35)
  call void @errfinish(ptr noundef @.str.41, i32 noundef 3075, ptr noundef @__func__.make_distinct_op)
  br label %37

37:                                               ; preds = %31, %29, %27
  unreachable

38:                                               ; No predecessors!
  br label %39

39:                                               ; preds = %38
  br label %40

40:                                               ; preds = %39, %5
  %41 = load ptr, ptr %11, align 8
  %42 = getelementptr inbounds nuw %struct.OpExpr, ptr %41, i32 0, i32 4
  %43 = load i8, ptr %42, align 8, !range !6, !noundef !7
  %44 = trunc i8 %43 to i1
  br i1 %44, label %45, label %60

45:                                               ; preds = %40
  br label %46

46:                                               ; preds = %45
  br i1 true, label %47, label %49

47:                                               ; preds = %46
  %48 = call zeroext i1 @errstart_cold(i32 noundef 21, ptr noundef null) #9
  br i1 %48, label %51, label %57

49:                                               ; preds = %46
  %50 = call zeroext i1 @errstart(i32 noundef 21, ptr noundef null)
  br i1 %50, label %51, label %57

51:                                               ; preds = %49, %47
  %52 = call i32 @errcode(i32 noundef 67141764)
  %53 = call i32 (ptr, ...) @errmsg(ptr noundef @.str.73, ptr noundef @.str.72)
  %54 = load ptr, ptr %6, align 8
  %55 = load i32, ptr %10, align 4
  %56 = call i32 @parser_errposition(ptr noundef %54, i32 noundef %55)
  call void @errfinish(ptr noundef @.str.41, i32 noundef 3081, ptr noundef @__func__.make_distinct_op)
  br label %57

57:                                               ; preds = %51, %49, %47
  unreachable

58:                                               ; No predecessors!
  br label %59

59:                                               ; preds = %58
  br label %60

60:                                               ; preds = %59, %40
  %61 = load ptr, ptr %11, align 8
  %62 = getelementptr inbounds nuw %struct.Node, ptr %61, i32 0, i32 0
  store i32 18, ptr %62, align 4
  %63 = load ptr, ptr %11, align 8
  call void @llvm.lifetime.end.p0(i64 8, ptr %11) #8
  ret ptr %63
}