; Function Attrs: nounwind uwtable
define internal fastcc ptr @make_distinct_op(ptr noundef %0, ptr noundef %1, ptr noundef %2, ptr noundef %3, i32 noundef %4) unnamed_addr #0 {
  %6 = getelementptr inbounds nuw i8, ptr %0, i64 192
  %7 = load ptr, ptr %6, align 8
  %8 = tail call ptr @make_op(ptr noundef %0, ptr noundef %1, ptr noundef %2, ptr noundef %3, ptr noundef %7, i32 noundef %4) #9
  %9 = getelementptr inbounds nuw i8, ptr %8, i64 12
  %10 = load i32, ptr %9, align 4
  %.not = icmp eq i32 %10, 16
  br i1 %.not, label %16, label %11

11:                                               ; preds = %5
  %12 = tail call zeroext i1 @errstart_cold(i32 noundef 21, ptr noundef null) #10
  tail call void @llvm.assume(i1 %12)
  %13 = tail call i32 @errcode(i32 noundef 67141764) #9
  %14 = tail call i32 (ptr, ...) @errmsg(ptr noundef nonnull @.str.71, ptr noundef nonnull @.str.72) #9
  %15 = tail call i32 @parser_errposition(ptr noundef nonnull %0, i32 noundef %4) #9
  tail call void @errfinish(ptr noundef nonnull @.str.41, i32 noundef 3075, ptr noundef nonnull @__func__.make_distinct_op) #9
  unreachable

16:                                               ; preds = %5
  %17 = getelementptr inbounds nuw i8, ptr %8, i64 16
  %18 = load i8, ptr %17, align 8, !range !4, !noundef !5
  %19 = trunc nuw i8 %18 to i1
  br i1 %19, label %20, label %25

20:                                               ; preds = %16
  %21 = tail call zeroext i1 @errstart_cold(i32 noundef 21, ptr noundef null) #10
  tail call void @llvm.assume(i1 %21)
  %22 = tail call i32 @errcode(i32 noundef 67141764) #9
  %23 = tail call i32 (ptr, ...) @errmsg(ptr noundef nonnull @.str.73, ptr noundef nonnull @.str.72) #9
  %24 = tail call i32 @parser_errposition(ptr noundef nonnull %0, i32 noundef %4) #9
  tail call void @errfinish(ptr noundef nonnull @.str.41, i32 noundef 3081, ptr noundef nonnull @__func__.make_distinct_op) #9
  unreachable

25:                                               ; preds = %16
  store i32 18, ptr %8, align 4
  ret ptr %8
}